; Function Attrs: mustprogress uwtable
define dso_local noundef zeroext i1 @_ZNK9CGContext12is_frame_varEPK8Variable(ptr noundef nonnull readonly align 8 captures(none) dereferenceable(216) %0, ptr noundef %1) local_unnamed_addr #4 align 2 {
  %3 = load ptr, ptr %0, align 8
  %.not.i = icmp eq ptr %3, null
  br i1 %.not.i, label %_ZNK9CGContext17get_current_blockEv.exit, label %4

4:                                                ; preds = %2
  %5 = getelementptr inbounds nuw i8, ptr %3, i64 144
  %6 = getelementptr inbounds nuw i8, ptr %3, i64 152
  %7 = load ptr, ptr %6, align 8
  %8 = load ptr, ptr %5, align 8
  %.not6.i = icmp eq ptr %7, %8
  br i1 %.not6.i, label %_ZNK9CGContext17get_current_blockEv.exit, label %9

9:                                                ; preds = %4
  %10 = getelementptr inbounds i8, ptr %7, i64 -8
  %11 = load ptr, ptr %10, align 8
  br label %_ZNK9CGContext17get_current_blockEv.exit

_ZNK9CGContext17get_current_blockEv.exit:         ; preds = %2, %4, %9
  %.0.i = phi ptr [ %11, %9 ], [ null, %4 ], [ null, %2 ]
  %12 = load ptr, ptr %1, align 8
  %13 = getelementptr inbounds nuw i8, ptr %12, i64 32
  %14 = load ptr, ptr %13, align 8
  %15 = tail call noundef zeroext i1 %14(ptr noundef nonnull align 8 dereferenceable(200) %1, ptr noundef %.0.i)
  br i1 %15, label %.loopexit, label %.preheader

.preheader:                                       ; preds = %_ZNK9CGContext17get_current_blockEv.exit
  %16 = getelementptr inbounds nuw i8, ptr %0, i64 24
  %17 = getelementptr inbounds nuw i8, ptr %0, i64 32
  %18 = load ptr, ptr %17, align 8
  %19 = load ptr, ptr %16, align 8
  %.not = icmp eq ptr %18, %19
  br i1 %.not, label %.loopexit, label %.lr.ph

20:                                               ; preds = %.lr.ph
  %21 = add nuw i64 %.089, 1
  %22 = load ptr, ptr %17, align 8
  %23 = load ptr, ptr %16, align 8
  %24 = ptrtoint ptr %22 to i64
  %25 = ptrtoint ptr %23 to i64
  %26 = sub i64 %24, %25
  %27 = ashr exact i64 %26, 3
  %28 = icmp ult i64 %21, %27
  br i1 %28, label %.lr.ph, label %.loopexit, !llvm.loop !23

.lr.ph:                                           ; preds = %.preheader, %20
  %29 = phi ptr [ %23, %20 ], [ %19, %.preheader ]
  %.089 = phi i64 [ %21, %20 ], [ 0, %.preheader ]
  %30 = getelementptr inbounds ptr, ptr %29, i64 %.089
  %31 = load ptr, ptr %30, align 8
  %32 = load ptr, ptr %1, align 8
  %33 = getelementptr inbounds nuw i8, ptr %32, i64 32
  %34 = load ptr, ptr %33, align 8
  %35 = tail call noundef zeroext i1 %34(ptr noundef nonnull align 8 dereferenceable(200) %1, ptr noundef %31)
  br i1 %35, label %.loopexit, label %20

.loopexit:                                        ; preds = %.lr.ph, %20, %.preheader, %_ZNK9CGContext17get_current_blockEv.exit
  %.0 = phi i1 [ true, %_ZNK9CGContext17get_current_blockEv.exit ], [ false, %.preheader ], [ %35, %20 ], [ %35, %.lr.ph ]
  ret i1 %.0
}